; ModuleID = '10/2284.c'
source_filename = "10/2284.c"
target datalayout = "e-m:e-p270:32:32-p271:32:32-p272:64:64-i64:64-f80:128-n8:16:32:64-S128"
target triple = "x86_64-pc-linux-gnu"

@.str = private unnamed_addr constant [3 x i8] c"%d\00", align 1
@.str.1 = private unnamed_addr constant [3 x i8] c"1\0A\00", align 1
@.str.2 = private unnamed_addr constant [4 x i8] c" %d\00", align 1
@.str.3 = private unnamed_addr constant [4 x i8] c"%d\0A\00", align 1

; Function Attrs: noinline nounwind uwtable
define dso_local void @main() #0 {
  %1 = alloca i32, align 4
  %2 = alloca [25 x i32], align 16
  %3 = alloca i32, align 4
  %4 = alloca [25 x i32], align 16
  %5 = alloca [25 x i32], align 16
  %6 = alloca i32, align 4
  %7 = alloca i32, align 4
  %8 = alloca i32, align 4
  %9 = alloca i32, align 4
  %10 = alloca i32, align 4
  %11 = call i32 (i8*, ...) @__isoc99_scanf(i8* getelementptr inbounds ([3 x i8], [3 x i8]* @.str, i64 0, i64 0), i32* %1)
  %12 = load i32, i32* %1, align 4
  %13 = icmp eq i32 %12, 1
  br i1 %13, label %14, label %16

14:                                               ; preds = %0
  %15 = call i32 (i8*, ...) @printf(i8* getelementptr inbounds ([3 x i8], [3 x i8]* @.str.1, i64 0, i64 0))
  br label %146

16:                                               ; preds = %0
  %17 = load i32, i32* %1, align 4
  %18 = icmp sge i32 %17, 2
  br i1 %18, label %19, label %145

19:                                               ; preds = %16
  store i32 0, i32* %7, align 4
  store i32 0, i32* %10, align 4
  %20 = getelementptr inbounds [25 x i32], [25 x i32]* %2, i64 0, i64 0
  %21 = call i32 (i8*, ...) @__isoc99_scanf(i8* getelementptr inbounds ([3 x i8], [3 x i8]* @.str, i64 0, i64 0), i32* %20)
  store i32 1, i32* %3, align 4
  br label %22

22:                                               ; preds = %31, %19
  %23 = load i32, i32* %3, align 4
  %24 = load i32, i32* %1, align 4
  %25 = icmp slt i32 %23, %24
  br i1 %25, label %26, label %34

26:                                               ; preds = %22
  %27 = load i32, i32* %3, align 4
  %28 = sext i32 %27 to i64
  %29 = getelementptr inbounds [25 x i32], [25 x i32]* %2, i64 0, i64 %28
  %30 = call i32 (i8*, ...) @__isoc99_scanf(i8* getelementptr inbounds ([4 x i8], [4 x i8]* @.str.2, i64 0, i64 0), i32* %29)
  br label %31

31:                                               ; preds = %26
  %32 = load i32, i32* %3, align 4
  %33 = add nsw i32 %32, 1
  store i32 %33, i32* %3, align 4
  br label %22

34:                                               ; preds = %22
  %35 = getelementptr inbounds [25 x i32], [25 x i32]* %4, i64 0, i64 0
  store i32 1, i32* %35, align 16
  %36 = load i32, i32* %1, align 4
  %37 = sub nsw i32 %36, 2
  store i32 %37, i32* %3, align 4
  br label %38

38:                                               ; preds = %118, %34
  %39 = load i32, i32* %3, align 4
  %40 = icmp sge i32 %39, 0
  br i1 %40, label %41, label %121

41:                                               ; preds = %38
  %42 = load i32, i32* %3, align 4
  %43 = add nsw i32 %42, 1
  store i32 %43, i32* %6, align 4
  br label %44

44:                                               ; preds = %94, %41
  %45 = load i32, i32* %6, align 4
  %46 = load i32, i32* %1, align 4
  %47 = sub nsw i32 %46, 1
  %48 = icmp sle i32 %45, %47
  br i1 %48, label %49, label %97

49:                                               ; preds = %44
  %50 = load i32, i32* %3, align 4
  %51 = sext i32 %50 to i64
  %52 = getelementptr inbounds [25 x i32], [25 x i32]* %2, i64 0, i64 %51
  %53 = load i32, i32* %52, align 4
  %54 = load i32, i32* %6, align 4
  %55 = sext i32 %54 to i64
  %56 = getelementptr inbounds [25 x i32], [25 x i32]* %2, i64 0, i64 %55
  %57 = load i32, i32* %56, align 4
  %58 = icmp sge i32 %53, %57
  br i1 %58, label %59, label %72

59:                                               ; preds = %49
  %60 = load i32, i32* %1, align 4
  %61 = sub nsw i32 %60, 1
  %62 = load i32, i32* %6, align 4
  %63 = sub nsw i32 %61, %62
  %64 = sext i32 %63 to i64
  %65 = getelementptr inbounds [25 x i32], [25 x i32]* %4, i64 0, i64 %64
  %66 = load i32, i32* %65, align 4
  %67 = load i32, i32* %7, align 4
  %68 = sext i32 %67 to i64
  %69 = getelementptr inbounds [25 x i32], [25 x i32]* %5, i64 0, i64 %68
  store i32 %66, i32* %69, align 4
  %70 = load i32, i32* %7, align 4
  %71 = add nsw i32 %70, 1
  store i32 %71, i32* %7, align 4
  br label %72

72:                                               ; preds = %59, %49
  store i32 0, i32* %8, align 4
  br label %73

73:                                               ; preds = %90, %72
  %74 = load i32, i32* %8, align 4
  %75 = load i32, i32* %7, align 4
  %76 = icmp slt i32 %74, %75
  br i1 %76, label %77, label %93

77:                                               ; preds = %73
  %78 = load i32, i32* %8, align 4
  %79 = sext i32 %78 to i64
  %80 = getelementptr inbounds [25 x i32], [25 x i32]* %5, i64 0, i64 %79
  %81 = load i32, i32* %80, align 4
  %82 = load i32, i32* %10, align 4
  %83 = icmp sgt i32 %81, %82
  br i1 %83, label %84, label %89

84:                                               ; preds = %77
  %85 = load i32, i32* %8, align 4
  %86 = sext i32 %85 to i64
  %87 = getelementptr inbounds [25 x i32], [25 x i32]* %5, i64 0, i64 %86
  %88 = load i32, i32* %87, align 4
  store i32 %88, i32* %10, align 4
  br label %89

89:                                               ; preds = %84, %77
  br label %90

90:                                               ; preds = %89
  %91 = load i32, i32* %8, align 4
  %92 = add nsw i32 %91, 1
  store i32 %92, i32* %8, align 4
  br label %73

93:                                               ; preds = %73
  br label %94

94:                                               ; preds = %93
  %95 = load i32, i32* %6, align 4
  %96 = add nsw i32 %95, 1
  store i32 %96, i32* %6, align 4
  br label %44

97:                                               ; preds = %44
  %98 = load i32, i32* %10, align 4
  %99 = add nsw i32 %98, 1
  %100 = load i32, i32* %1, align 4
  %101 = sub nsw i32 %100, 1
  %102 = load i32, i32* %3, align 4
  %103 = sub nsw i32 %101, %102
  %104 = sext i32 %103 to i64
  %105 = getelementptr inbounds [25 x i32], [25 x i32]* %4, i64 0, i64 %104
  store i32 %99, i32* %105, align 4
  store i32 0, i32* %7, align 4
  store i32 0, i32* %10, align 4
  store i32 0, i32* %8, align 4
  br label %106

106:                                              ; preds = %114, %97
  %107 = load i32, i32* %8, align 4
  %108 = load i32, i32* %7, align 4
  %109 = icmp slt i32 %107, %108
  br i1 %109, label %110, label %117

110:                                              ; preds = %106
  %111 = load i32, i32* %8, align 4
  %112 = sext i32 %111 to i64
  %113 = getelementptr inbounds [25 x i32], [25 x i32]* %5, i64 0, i64 %112
  store i32 0, i32* %113, align 4
  br label %114

114:                                              ; preds = %110
  %115 = load i32, i32* %8, align 4
  %116 = add nsw i32 %115, 1
  store i32 %116, i32* %8, align 4
  br label %106

117:                                              ; preds = %106
  br label %118

118:                                              ; preds = %117
  %119 = load i32, i32* %3, align 4
  %120 = add nsw i32 %119, -1
  store i32 %120, i32* %3, align 4
  br label %38

121:                                              ; preds = %38
  store i32 0, i32* %9, align 4
  br label %122

122:                                              ; preds = %139, %121
  %123 = load i32, i32* %9, align 4
  %124 = load i32, i32* %1, align 4
  %125 = icmp slt i32 %123, %124
  br i1 %125, label %126, label %142

126:                                              ; preds = %122
  %127 = load i32, i32* %9, align 4
  %128 = sext i32 %127 to i64
  %129 = getelementptr inbounds [25 x i32], [25 x i32]* %4, i64 0, i64 %128
  %130 = load i32, i32* %129, align 4
  %131 = load i32, i32* %10, align 4
  %132 = icmp sgt i32 %130, %131
  br i1 %132, label %133, label %138

133:                                              ; preds = %126
  %134 = load i32, i32* %9, align 4
  %135 = sext i32 %134 to i64
  %136 = getelementptr inbounds [25 x i32], [25 x i32]* %4, i64 0, i64 %135
  %137 = load i32, i32* %136, align 4
  store i32 %137, i32* %10, align 4
  br label %138

138:                                              ; preds = %133, %126
  br label %139

139:                                              ; preds = %138
  %140 = load i32, i32* %9, align 4
  %141 = add nsw i32 %140, 1
  store i32 %141, i32* %9, align 4
  br label %122

142:                                              ; preds = %122
  %143 = load i32, i32* %10, align 4
  %144 = call i32 (i8*, ...) @printf(i8* getelementptr inbounds ([4 x i8], [4 x i8]* @.str.3, i64 0, i64 0), i32 %143)
  br label %145

145:                                              ; preds = %142, %16
  br label %146

146:                                              ; preds = %145, %14
  ret void
}

declare dso_local i32 @__isoc99_scanf(i8*, ...) #1

declare dso_local i32 @printf(i8*, ...) #1


!llvm.module.flags = !{!0}
!llvm.ident = !{!1}

!0 = !{i32 1, !"wchar_size", i32 4}
!1 = !{!"clang version 10.0.0-4ubuntu1 "}
